target datalayout = "e-m:e-p270:32:32-p271:32:32-p272:64:64-i64:64-i128:128-f80:128-n8:16:32:64-S128"
target triple = "x86_64-pc-linux-gnu"

%union.pthread_mutex_t = type { %struct.__pthread_mutex_s }
%struct.__pthread_mutex_s = type { i32, i32, i32, i32, i32, i16, i16, %struct.__pthread_internal_list }
%struct.__pthread_internal_list = type { ptr, ptr }
%struct.___itt_domain = type { i32, ptr, ptr, i32, ptr, ptr }
%struct.___itt_global = type { [8 x i8], i64, i64, i64, i64, i64, i64, %union.pthread_mutex_t, ptr, ptr, ptr, ptr, ptr, ptr, ptr, ptr, i32, ptr, i32, ptr, ptr }
%struct.___itt_string_handle = type { ptr, ptr, i32, ptr, ptr }
%struct.__itt_counter_info = type { ptr, ptr, ptr, ptr, i32, i64, i32, ptr, ptr }
%struct.___itt_histogram = type { ptr, ptr, ptr, i32, i32, i32, ptr, ptr }
%struct.___itt_counter_metadata = type { ptr, i32, ptr, ptr, i64, i32, ptr, ptr }

; Function Attrs: nounwind uwtable
define internal void @__itt_free_allocated_resources() #0 {
  %1 = alloca ptr, align 8
  %2 = alloca ptr, align 8
  %3 = alloca ptr, align 8
  %4 = alloca ptr, align 8
  %5 = alloca ptr, align 8
  %6 = alloca ptr, align 8
  %7 = alloca ptr, align 8
  %8 = alloca ptr, align 8
  %9 = alloca ptr, align 8
  %10 = alloca ptr, align 8
  call void @llvm.lifetime.start.p0(i64 8, ptr %1) #8
  %11 = load ptr, ptr getelementptr inbounds nuw (%struct.___itt_global, ptr @__itt__ittapi_global, i32 0, i32 15), align 8, !tbaa !68
  store ptr %11, ptr %1, align 8, !tbaa !28
  br label %12

12:                                               ; preds = %15, %0
  %13 = load ptr, ptr %1, align 8, !tbaa !28
  %14 = icmp ne ptr %13, null
  br i1 %14, label %15, label %24

15:                                               ; preds = %12
  call void @llvm.lifetime.start.p0(i64 8, ptr %2) #8
  %16 = load ptr, ptr %1, align 8, !tbaa !28
  %17 = getelementptr inbounds nuw %struct.___itt_string_handle, ptr %16, i32 0, i32 4
  %18 = load ptr, ptr %17, align 8, !tbaa !71
  store ptr %18, ptr %2, align 8, !tbaa !28
  %19 = load ptr, ptr %1, align 8, !tbaa !28
  %20 = getelementptr inbounds nuw %struct.___itt_string_handle, ptr %19, i32 0, i32 0
  %21 = load ptr, ptr %20, align 8, !tbaa !69
  call void @free(ptr noundef %21) #8
  %22 = load ptr, ptr %1, align 8, !tbaa !28
  call void @free(ptr noundef %22) #8
  %23 = load ptr, ptr %2, align 8, !tbaa !28
  store ptr %23, ptr %1, align 8, !tbaa !28
  call void @llvm.lifetime.end.p0(i64 8, ptr %2) #8
  br label %12, !llvm.loop !149

24:                                               ; preds = %12
  store ptr null, ptr getelementptr inbounds nuw (%struct.___itt_global, ptr @__itt__ittapi_global, i32 0, i32 15), align 8, !tbaa !68
  call void @llvm.lifetime.start.p0(i64 8, ptr %3) #8
  %25 = load ptr, ptr getelementptr inbounds nuw (%struct.___itt_global, ptr @__itt__ittapi_global, i32 0, i32 14), align 8, !tbaa !51
  store ptr %25, ptr %3, align 8, !tbaa !27
  br label %26

26:                                               ; preds = %29, %24
  %27 = load ptr, ptr %3, align 8, !tbaa !27
  %28 = icmp ne ptr %27, null
  br i1 %28, label %29, label %38

29:                                               ; preds = %26
  call void @llvm.lifetime.start.p0(i64 8, ptr %4) #8
  %30 = load ptr, ptr %3, align 8, !tbaa !27
  %31 = getelementptr inbounds nuw %struct.___itt_domain, ptr %30, i32 0, i32 5
  %32 = load ptr, ptr %31, align 8, !tbaa !54
  store ptr %32, ptr %4, align 8, !tbaa !27
  %33 = load ptr, ptr %3, align 8, !tbaa !27
  %34 = getelementptr inbounds nuw %struct.___itt_domain, ptr %33, i32 0, i32 1
  %35 = load ptr, ptr %34, align 8, !tbaa !52
  call void @free(ptr noundef %35) #8
  %36 = load ptr, ptr %3, align 8, !tbaa !27
  call void @free(ptr noundef %36) #8
  %37 = load ptr, ptr %4, align 8, !tbaa !27
  store ptr %37, ptr %3, align 8, !tbaa !27
  call void @llvm.lifetime.end.p0(i64 8, ptr %4) #8
  br label %26, !llvm.loop !150

38:                                               ; preds = %26
  store ptr null, ptr getelementptr inbounds nuw (%struct.___itt_global, ptr @__itt__ittapi_global, i32 0, i32 14), align 8, !tbaa !51
  call void @llvm.lifetime.start.p0(i64 8, ptr %5) #8
  %39 = load ptr, ptr getelementptr inbounds nuw (%struct.___itt_global, ptr @__itt__ittapi_global, i32 0, i32 17), align 8, !tbaa !78
  store ptr %39, ptr %5, align 8, !tbaa !76
  br label %40

40:                                               ; preds = %43, %38
  %41 = load ptr, ptr %5, align 8, !tbaa !76
  %42 = icmp ne ptr %41, null
  br i1 %42, label %43, label %55

43:                                               ; preds = %40
  call void @llvm.lifetime.start.p0(i64 8, ptr %6) #8
  %44 = load ptr, ptr %5, align 8, !tbaa !76
  %45 = getelementptr inbounds nuw %struct.__itt_counter_info, ptr %44, i32 0, i32 8
  %46 = load ptr, ptr %45, align 8, !tbaa !83
  store ptr %46, ptr %6, align 8, !tbaa !76
  %47 = load ptr, ptr %5, align 8, !tbaa !76
  %48 = getelementptr inbounds nuw %struct.__itt_counter_info, ptr %47, i32 0, i32 0
  %49 = load ptr, ptr %48, align 8, !tbaa !79
  call void @free(ptr noundef %49) #8
  %50 = load ptr, ptr %5, align 8, !tbaa !76
  %51 = getelementptr inbounds nuw %struct.__itt_counter_info, ptr %50, i32 0, i32 2
  %52 = load ptr, ptr %51, align 8, !tbaa !82
  call void @free(ptr noundef %52) #8
  %53 = load ptr, ptr %5, align 8, !tbaa !76
  call void @free(ptr noundef %53) #8
  %54 = load ptr, ptr %6, align 8, !tbaa !76
  store ptr %54, ptr %5, align 8, !tbaa !76
  call void @llvm.lifetime.end.p0(i64 8, ptr %6) #8
  br label %40, !llvm.loop !151

55:                                               ; preds = %40
  store ptr null, ptr getelementptr inbounds nuw (%struct.___itt_global, ptr @__itt__ittapi_global, i32 0, i32 17), align 8, !tbaa !78
  call void @llvm.lifetime.start.p0(i64 8, ptr %7) #8
  %56 = load ptr, ptr getelementptr inbounds nuw (%struct.___itt_global, ptr @__itt__ittapi_global, i32 0, i32 19), align 8, !tbaa !91
  store ptr %56, ptr %7, align 8, !tbaa !47
  br label %57

57:                                               ; preds = %60, %55
  %58 = load ptr, ptr %7, align 8, !tbaa !47
  %59 = icmp ne ptr %58, null
  br i1 %59, label %60, label %69

60:                                               ; preds = %57
  call void @llvm.lifetime.start.p0(i64 8, ptr %8) #8
  %61 = load ptr, ptr %7, align 8, !tbaa !47
  %62 = getelementptr inbounds nuw %struct.___itt_histogram, ptr %61, i32 0, i32 7
  %63 = load ptr, ptr %62, align 8, !tbaa !95
  store ptr %63, ptr %8, align 8, !tbaa !47
  %64 = load ptr, ptr %7, align 8, !tbaa !47
  %65 = getelementptr inbounds nuw %struct.___itt_histogram, ptr %64, i32 0, i32 1
  %66 = load ptr, ptr %65, align 8, !tbaa !94
  call void @free(ptr noundef %66) #8
  %67 = load ptr, ptr %7, align 8, !tbaa !47
  call void @free(ptr noundef %67) #8
  %68 = load ptr, ptr %8, align 8, !tbaa !47
  store ptr %68, ptr %7, align 8, !tbaa !47
  call void @llvm.lifetime.end.p0(i64 8, ptr %8) #8
  br label %57, !llvm.loop !152

69:                                               ; preds = %57
  store ptr null, ptr getelementptr inbounds nuw (%struct.___itt_global, ptr @__itt__ittapi_global, i32 0, i32 19), align 8, !tbaa !91
  call void @llvm.lifetime.start.p0(i64 8, ptr %9) #8
  %70 = load ptr, ptr getelementptr inbounds nuw (%struct.___itt_global, ptr @__itt__ittapi_global, i32 0, i32 20), align 8, !tbaa !110
  store ptr %70, ptr %9, align 8, !tbaa !106
  br label %71

71:                                               ; preds = %74, %69
  %72 = load ptr, ptr %9, align 8, !tbaa !106
  %73 = icmp ne ptr %72, null
  br i1 %73, label %74, label %83

74:                                               ; preds = %71
  call void @llvm.lifetime.start.p0(i64 8, ptr %10) #8
  %75 = load ptr, ptr %9, align 8, !tbaa !106
  %76 = getelementptr inbounds nuw %struct.___itt_counter_metadata, ptr %75, i32 0, i32 7
  %77 = load ptr, ptr %76, align 8, !tbaa !114
  store ptr %77, ptr %10, align 8, !tbaa !106
  %78 = load ptr, ptr %9, align 8, !tbaa !106
  %79 = getelementptr inbounds nuw %struct.___itt_counter_metadata, ptr %78, i32 0, i32 2
  %80 = load ptr, ptr %79, align 8, !tbaa !117
  call void @free(ptr noundef %80) #8
  %81 = load ptr, ptr %9, align 8, !tbaa !106
  call void @free(ptr noundef %81) #8
  %82 = load ptr, ptr %10, align 8, !tbaa !106
  store ptr %82, ptr %9, align 8, !tbaa !106
  call void @llvm.lifetime.end.p0(i64 8, ptr %10) #8
  br label %71, !llvm.loop !153

83:                                               ; preds = %71
  store ptr null, ptr getelementptr inbounds nuw (%struct.___itt_global, ptr @__itt__ittapi_global, i32 0, i32 20), align 8, !tbaa !110
  call void @llvm.lifetime.end.p0(i64 8, ptr %9) #8
  call void @llvm.lifetime.end.p0(i64 8, ptr %7) #8
  call void @llvm.lifetime.end.p0(i64 8, ptr %5) #8
  call void @llvm.lifetime.end.p0(i64 8, ptr %3) #8
  call void @llvm.lifetime.end.p0(i64 8, ptr %1) #8
  ret void
}